target datalayout = "e-m:e-p270:32:32-p271:32:32-p272:64:64-i64:64-i128:128-f80:128-n8:16:32:64-S128"
target triple = "x86_64-pc-linux-gnu"

%struct.expert_field = type { i32, i32 }

@ett_bgp_mp_reach_nlri = internal global i32 0, align 4
@hf_bgp_ls_type = internal global i32 0, align 4
@hf_bgp_ls_length = internal global i32 0, align 4
@hf_bgp_ls_nlri_prefix_descriptors_tlv = internal global i32 0, align 4
@hf_bgp_ls_nlri_multi_topology_id = internal global i32 0, align 4
@hf_bgp_ls_nlri_ospf_route_type = internal global i32 0, align 4
@hf_bgp_ls_nlri_ip_reachability_prefix_ip = internal global i32 0, align 4
@hf_bgp_ls_nlri_ip_reachability_prefix_ip6 = internal global i32 0, align 4
@hf_bgp_ls_tlv_multi_topology_id = internal global i32 0, align 4
@hf_bgp_ls_tlv_ospf_route_type = internal global i32 0, align 4
@hf_bgp_ls_tlv_ip_reachability_information = internal global i32 0, align 4
@ei_bgp_ls_error = internal global %struct.expert_field zeroinitializer, align 4
@.str.1838 = private unnamed_addr constant [38 x i8] c"Unknown data in Link-State Link NLRI!\00", align 1
@.str.1911 = private unnamed_addr constant [69 x i8] c"Unexpected Multi Topology ID TLV's length (%u), it must be %u bytes!\00", align 1
@.str.1913 = private unnamed_addr constant [61 x i8] c"Reserved bits of Multi Topology ID must be set to zero! (%u)\00", align 1
@.str.1914 = private unnamed_addr constant [41 x i8] c"Unknown Prefix Descriptor TLV Code (%u)!\00", align 1
@.str.1915 = private unnamed_addr constant [35 x i8] c"OSPF Route Type length must be \221\22\00", align 1
@.str.1916 = private unnamed_addr constant [13 x i8] c"Reachability\00", align 1

; Function Attrs: null_pointer_is_valid sspstrong uwtable
define internal i32 @decode_bgp_link_nlri_prefix_descriptors(ptr noundef %0, ptr noundef %1, i32 noundef %2, ptr noundef %3, i32 noundef %4, i32 noundef %5) #0 {
  %7 = alloca i32, align 4
  %8 = alloca ptr, align 8
  %9 = alloca ptr, align 8
  %10 = alloca i32, align 4
  %11 = alloca ptr, align 8
  %12 = alloca i32, align 4
  %13 = alloca i32, align 4
  %14 = alloca i16, align 2
  %15 = alloca i16, align 2
  %16 = alloca i16, align 2
  %17 = alloca i16, align 2
  %18 = alloca ptr, align 8
  %19 = alloca ptr, align 8
  %20 = alloca ptr, align 8
  %21 = alloca ptr, align 8
  %22 = alloca i32, align 4
  store ptr %0, ptr %8, align 8
  store ptr %1, ptr %9, align 8
  store i32 %2, ptr %10, align 4
  store ptr %3, ptr %11, align 8
  store i32 %4, ptr %12, align 4
  store i32 %5, ptr %13, align 4
  call void @llvm.lifetime.start.p0(i64 2, ptr %14) #6
  call void @llvm.lifetime.start.p0(i64 2, ptr %15) #6
  call void @llvm.lifetime.start.p0(i64 2, ptr %16) #6
  call void @llvm.lifetime.start.p0(i64 2, ptr %17) #6
  call void @llvm.lifetime.start.p0(i64 8, ptr %18) #6
  call void @llvm.lifetime.start.p0(i64 8, ptr %19) #6
  call void @llvm.lifetime.start.p0(i64 8, ptr %20) #6
  call void @llvm.lifetime.start.p0(i64 8, ptr %21) #6
  %23 = load ptr, ptr %9, align 8
  %24 = load i32, ptr @hf_bgp_ls_nlri_prefix_descriptors_tlv, align 4
  %25 = load ptr, ptr %8, align 8
  %26 = load i32, ptr %10, align 4
  %27 = load i32, ptr %12, align 4
  %28 = add i32 %27, 4
  %29 = call ptr @proto_tree_add_item(ptr noundef %23, i32 noundef %24, ptr noundef %25, i32 noundef %26, i32 noundef %28, i32 noundef 0)
  store ptr %29, ptr %18, align 8
  %30 = load ptr, ptr %18, align 8
  %31 = load i32, ptr @ett_bgp_mp_reach_nlri, align 4
  %32 = call ptr @proto_item_add_subtree(ptr noundef %30, i32 noundef %31)
  store ptr %32, ptr %19, align 8
  store i16 0, ptr %16, align 2
  br label %33

33:                                               ; preds = %195, %6
  %34 = load i32, ptr %12, align 4
  %35 = icmp sgt i32 %34, 0
  br i1 %35, label %36, label %213

36:                                               ; preds = %33
  %37 = load i32, ptr %12, align 4
  %38 = icmp slt i32 %37, 4
  br i1 %38, label %39, label %48

39:                                               ; preds = %36
  %40 = load ptr, ptr %11, align 8
  %41 = load ptr, ptr %9, align 8
  %42 = call ptr (ptr, ptr, ptr, ptr, ...) @expert_add_info_format(ptr noundef %40, ptr noundef %41, ptr noundef @ei_bgp_ls_error, ptr noundef @.str.1838)
  %43 = load i32, ptr %12, align 4
  %44 = load i16, ptr %16, align 2
  %45 = zext i16 %44 to i32
  %46 = add i32 %45, %43
  %47 = trunc i32 %46 to i16
  store i16 %47, ptr %16, align 2
  br label %213

48:                                               ; preds = %36
  %49 = load ptr, ptr %8, align 8
  %50 = load i32, ptr %10, align 4
  %51 = call zeroext i16 @tvb_get_ntohs(ptr noundef %49, i32 noundef %50)
  store i16 %51, ptr %15, align 2
  %52 = load ptr, ptr %8, align 8
  %53 = load i32, ptr %10, align 4
  %54 = add i32 %53, 2
  %55 = call zeroext i16 @tvb_get_ntohs(ptr noundef %52, i32 noundef %54)
  store i16 %55, ptr %14, align 2
  %56 = load i16, ptr %15, align 2
  %57 = zext i16 %56 to i32
  switch i32 %57, label %104 [
    i32 263, label %58
    i32 264, label %80
    i32 265, label %92
  ]

58:                                               ; preds = %48
  %59 = load i16, ptr %14, align 2
  %60 = zext i16 %59 to i32
  %61 = icmp ne i32 %60, 2
  br i1 %61, label %62, label %68

62:                                               ; preds = %58
  %63 = load ptr, ptr %11, align 8
  %64 = load ptr, ptr %19, align 8
  %65 = load i16, ptr %14, align 2
  %66 = zext i16 %65 to i32
  %67 = call ptr (ptr, ptr, ptr, ptr, ...) @expert_add_info_format(ptr noundef %63, ptr noundef %64, ptr noundef @ei_bgp_ls_error, ptr noundef @.str.1911, i32 noundef %66, i32 noundef 2)
  store i32 -1, ptr %7, align 4
  store i32 1, ptr %22, align 4
  br label %216

68:                                               ; preds = %58
  %69 = load ptr, ptr %19, align 8
  %70 = load i32, ptr @hf_bgp_ls_tlv_multi_topology_id, align 4
  %71 = load ptr, ptr %8, align 8
  %72 = load i32, ptr %10, align 4
  %73 = load i16, ptr %14, align 2
  %74 = zext i16 %73 to i32
  %75 = add i32 %74, 4
  %76 = call ptr @proto_tree_add_item(ptr noundef %69, i32 noundef %70, ptr noundef %71, i32 noundef %72, i32 noundef %75, i32 noundef 0)
  store ptr %76, ptr %20, align 8
  %77 = load ptr, ptr %20, align 8
  %78 = load i32, ptr @ett_bgp_mp_reach_nlri, align 4
  %79 = call ptr @proto_item_add_subtree(ptr noundef %77, i32 noundef %78)
  store ptr %79, ptr %21, align 8
  br label %110

80:                                               ; preds = %48
  %81 = load ptr, ptr %19, align 8
  %82 = load i32, ptr @hf_bgp_ls_tlv_ospf_route_type, align 4
  %83 = load ptr, ptr %8, align 8
  %84 = load i32, ptr %10, align 4
  %85 = load i16, ptr %14, align 2
  %86 = zext i16 %85 to i32
  %87 = add i32 %86, 4
  %88 = call ptr @proto_tree_add_item(ptr noundef %81, i32 noundef %82, ptr noundef %83, i32 noundef %84, i32 noundef %87, i32 noundef 0)
  store ptr %88, ptr %20, align 8
  %89 = load ptr, ptr %20, align 8
  %90 = load i32, ptr @ett_bgp_mp_reach_nlri, align 4
  %91 = call ptr @proto_item_add_subtree(ptr noundef %89, i32 noundef %90)
  store ptr %91, ptr %21, align 8
  br label %110

92:                                               ; preds = %48
  %93 = load ptr, ptr %19, align 8
  %94 = load i32, ptr @hf_bgp_ls_tlv_ip_reachability_information, align 4
  %95 = load ptr, ptr %8, align 8
  %96 = load i32, ptr %10, align 4
  %97 = load i16, ptr %14, align 2
  %98 = zext i16 %97 to i32
  %99 = add i32 %98, 4
  %100 = call ptr @proto_tree_add_item(ptr noundef %93, i32 noundef %94, ptr noundef %95, i32 noundef %96, i32 noundef %99, i32 noundef 0)
  store ptr %100, ptr %20, align 8
  %101 = load ptr, ptr %20, align 8
  %102 = load i32, ptr @ett_bgp_mp_reach_nlri, align 4
  %103 = call ptr @proto_item_add_subtree(ptr noundef %101, i32 noundef %102)
  store ptr %103, ptr %21, align 8
  br label %110

104:                                              ; preds = %48
  %105 = load ptr, ptr %11, align 8
  %106 = load ptr, ptr %19, align 8
  %107 = load i16, ptr %15, align 2
  %108 = zext i16 %107 to i32
  %109 = call ptr (ptr, ptr, ptr, ptr, ...) @expert_add_info_format(ptr noundef %105, ptr noundef %106, ptr noundef @ei_bgp_ls_error, ptr noundef @.str.1914, i32 noundef %108)
  store i32 -1, ptr %7, align 4
  store i32 1, ptr %22, align 4
  br label %216

110:                                              ; preds = %92, %80, %68
  %111 = load ptr, ptr %21, align 8
  %112 = load i32, ptr @hf_bgp_ls_type, align 4
  %113 = load ptr, ptr %8, align 8
  %114 = load i32, ptr %10, align 4
  %115 = call ptr @proto_tree_add_item(ptr noundef %111, i32 noundef %112, ptr noundef %113, i32 noundef %114, i32 noundef 2, i32 noundef 0)
  %116 = load ptr, ptr %21, align 8
  %117 = load i32, ptr @hf_bgp_ls_length, align 4
  %118 = load ptr, ptr %8, align 8
  %119 = load i32, ptr %10, align 4
  %120 = add i32 %119, 2
  %121 = call ptr @proto_tree_add_item(ptr noundef %116, i32 noundef %117, ptr noundef %118, i32 noundef %120, i32 noundef 2, i32 noundef 0)
  %122 = load i16, ptr %15, align 2
  %123 = zext i16 %122 to i32
  switch i32 %123, label %195 [
    i32 263, label %124
    i32 264, label %148
    i32 265, label %163
  ]

124:                                              ; preds = %110
  %125 = load ptr, ptr %8, align 8
  %126 = load i32, ptr %10, align 4
  %127 = add i32 %126, 4
  %128 = call zeroext i16 @tvb_get_ntohs(ptr noundef %125, i32 noundef %127)
  store i16 %128, ptr %17, align 2
  %129 = load i16, ptr %17, align 2
  %130 = zext i16 %129 to i32
  %131 = ashr i32 %130, 12
  %132 = trunc i32 %131 to i16
  store i16 %132, ptr %17, align 2
  %133 = load i16, ptr %17, align 2
  %134 = icmp ne i16 %133, 0
  br i1 %134, label %135, label %141

135:                                              ; preds = %124
  %136 = load ptr, ptr %11, align 8
  %137 = load ptr, ptr %21, align 8
  %138 = load i16, ptr %17, align 2
  %139 = zext i16 %138 to i32
  %140 = call ptr (ptr, ptr, ptr, ptr, ...) @expert_add_info_format(ptr noundef %136, ptr noundef %137, ptr noundef @ei_bgp_ls_error, ptr noundef @.str.1913, i32 noundef %139)
  br label %141

141:                                              ; preds = %135, %124
  %142 = load ptr, ptr %21, align 8
  %143 = load i32, ptr @hf_bgp_ls_nlri_multi_topology_id, align 4
  %144 = load ptr, ptr %8, align 8
  %145 = load i32, ptr %10, align 4
  %146 = add i32 %145, 4
  %147 = call ptr @proto_tree_add_item(ptr noundef %142, i32 noundef %143, ptr noundef %144, i32 noundef %146, i32 noundef 2, i32 noundef 0)
  br label %195

148:                                              ; preds = %110
  %149 = load i16, ptr %14, align 2
  %150 = zext i16 %149 to i32
  %151 = icmp ne i32 %150, 1
  br i1 %151, label %152, label %156

152:                                              ; preds = %148
  %153 = load ptr, ptr %11, align 8
  %154 = load ptr, ptr %21, align 8
  %155 = call ptr (ptr, ptr, ptr, ptr, ...) @expert_add_info_format(ptr noundef %153, ptr noundef %154, ptr noundef @ei_bgp_ls_error, ptr noundef @.str.1915)
  br label %195

156:                                              ; preds = %148
  %157 = load ptr, ptr %21, align 8
  %158 = load i32, ptr @hf_bgp_ls_nlri_ospf_route_type, align 4
  %159 = load ptr, ptr %8, align 8
  %160 = load i32, ptr %10, align 4
  %161 = add i32 %160, 4
  %162 = call ptr @proto_tree_add_item(ptr noundef %157, i32 noundef %158, ptr noundef %159, i32 noundef %161, i32 noundef 1, i32 noundef 0)
  br label %195

163:                                              ; preds = %110
  %164 = load i32, ptr %13, align 4
  %165 = icmp eq i32 %164, 4
  br i1 %165, label %166, label %179

166:                                              ; preds = %163
  %167 = load ptr, ptr %21, align 8
  %168 = load ptr, ptr %11, align 8
  %169 = load ptr, ptr %20, align 8
  %170 = load i32, ptr @hf_bgp_ls_nlri_ip_reachability_prefix_ip, align 4
  %171 = load ptr, ptr %8, align 8
  %172 = load i32, ptr %10, align 4
  %173 = add i32 %172, 4
  %174 = call i32 @decode_prefix4(ptr noundef %167, ptr noundef %168, ptr noundef %169, i32 noundef %170, ptr noundef %171, i32 noundef %173, ptr noundef @.str.1916)
  %175 = icmp eq i32 %174, -1
  br i1 %175, label %176, label %179

176:                                              ; preds = %166
  %177 = load i16, ptr %16, align 2
  %178 = zext i16 %177 to i32
  store i32 %178, ptr %7, align 4
  store i32 1, ptr %22, align 4
  br label %216

179:                                              ; preds = %166, %163
  %180 = load i32, ptr %13, align 4
  %181 = icmp eq i32 %180, 41
  br i1 %181, label %182, label %194

182:                                              ; preds = %179
  %183 = load ptr, ptr %21, align 8
  %184 = load ptr, ptr %11, align 8
  %185 = load i32, ptr @hf_bgp_ls_nlri_ip_reachability_prefix_ip6, align 4
  %186 = load ptr, ptr %8, align 8
  %187 = load i32, ptr %10, align 4
  %188 = add i32 %187, 4
  %189 = call i32 @decode_prefix6(ptr noundef %183, ptr noundef %184, i32 noundef %185, ptr noundef %186, i32 noundef %188, i16 noundef zeroext 0, ptr noundef @.str.1916)
  %190 = icmp eq i32 %189, -1
  br i1 %190, label %191, label %194

191:                                              ; preds = %182
  %192 = load i16, ptr %16, align 2
  %193 = zext i16 %192 to i32
  store i32 %193, ptr %7, align 4
  store i32 1, ptr %22, align 4
  br label %216

194:                                              ; preds = %182, %179
  br label %195

195:                                              ; preds = %110, %194, %156, %152, %141
  %196 = load i16, ptr %14, align 2
  %197 = zext i16 %196 to i32
  %198 = add i32 4, %197
  %199 = load i32, ptr %12, align 4
  %200 = sub i32 %199, %198
  store i32 %200, ptr %12, align 4
  %201 = load i16, ptr %14, align 2
  %202 = zext i16 %201 to i32
  %203 = add i32 4, %202
  %204 = load i32, ptr %10, align 4
  %205 = add i32 %204, %203
  store i32 %205, ptr %10, align 4
  %206 = load i16, ptr %14, align 2
  %207 = zext i16 %206 to i32
  %208 = add i32 4, %207
  %209 = load i16, ptr %16, align 2
  %210 = zext i16 %209 to i32
  %211 = add i32 %210, %208
  %212 = trunc i32 %211 to i16
  store i16 %212, ptr %16, align 2
  br label %33, !llvm.loop !59

213:                                              ; preds = %39, %33
  %214 = load i16, ptr %16, align 2
  %215 = zext i16 %214 to i32
  store i32 %215, ptr %7, align 4
  store i32 1, ptr %22, align 4
  br label %216

216:                                              ; preds = %213, %191, %176, %104, %62
  call void @llvm.lifetime.end.p0(i64 8, ptr %21) #6
  call void @llvm.lifetime.end.p0(i64 8, ptr %20) #6
  call void @llvm.lifetime.end.p0(i64 8, ptr %19) #6
  call void @llvm.lifetime.end.p0(i64 8, ptr %18) #6
  call void @llvm.lifetime.end.p0(i64 2, ptr %17) #6
  call void @llvm.lifetime.end.p0(i64 2, ptr %16) #6
  call void @llvm.lifetime.end.p0(i64 2, ptr %15) #6
  call void @llvm.lifetime.end.p0(i64 2, ptr %14) #6
  %217 = load i32, ptr %7, align 4
  ret i32 %217
}