; Function Attrs: null_pointer_is_valid sspstrong uwtable
define internal fastcc range(i32 -1, 65536) i32 @decode_bgp_link_nlri_prefix_descriptors(ptr noundef %0, ptr noundef %1, i32 noundef %2, ptr noundef %3, i32 noundef range(i32 1, 65535) %4, i32 noundef range(i32 4, 42) %5) unnamed_addr #0 {
  %7 = load i32, ptr @hf_bgp_ls_nlri_prefix_descriptors_tlv, align 4
  %8 = add nuw nsw i32 %4, 4
  %9 = tail call ptr @proto_tree_add_item(ptr noundef %1, i32 noundef %7, ptr noundef %0, i32 noundef %2, i32 noundef %8, i32 noundef 0)
  %10 = load i32, ptr @ett_bgp_mp_reach_nlri, align 4
  %11 = tail call ptr @proto_item_add_subtree(ptr noundef %9, i32 noundef %10)
  br label %12

12:                                               ; preds = %6, %89
  %.083117 = phi i32 [ %2, %6 ], [ %91, %89 ]
  %.084116 = phi i16 [ 0, %6 ], [ %93, %89 ]
  %.085115 = phi i32 [ %4, %6 ], [ %90, %89 ]
  %13 = icmp samesign ult i32 %.085115, 4
  br i1 %13, label %14, label %18

14:                                               ; preds = %12
  %15 = tail call ptr (ptr, ptr, ptr, ptr, ...) @expert_add_info_format(ptr noundef %3, ptr noundef %1, ptr noundef nonnull @ei_bgp_ls_error, ptr noundef nonnull @.str.1838)
  %16 = trunc nuw i32 %.085115 to i16
  %17 = add i16 %.084116, %16
  br label %.loopexit

18:                                               ; preds = %12
  %19 = tail call zeroext i16 @tvb_get_ntohs(ptr noundef %0, i32 noundef %.083117)
  %20 = add i32 %.083117, 2
  %21 = tail call zeroext i16 @tvb_get_ntohs(ptr noundef %0, i32 noundef %20)
  switch i16 %19, label %26 [
    i16 263, label %22
    i16 264, label %47
    i16 265, label %64
  ]

22:                                               ; preds = %18
  %.not = icmp eq i16 %21, 2
  br i1 %.not, label %29, label %23

23:                                               ; preds = %22
  %24 = zext i16 %21 to i32
  %25 = tail call ptr (ptr, ptr, ptr, ptr, ...) @expert_add_info_format(ptr noundef %3, ptr noundef %11, ptr noundef nonnull @ei_bgp_ls_error, ptr noundef nonnull @.str.1911, i32 noundef %24, i32 noundef 2)
  br label %96

26:                                               ; preds = %18
  %27 = zext i16 %19 to i32
  %28 = tail call ptr (ptr, ptr, ptr, ptr, ...) @expert_add_info_format(ptr noundef %3, ptr noundef %11, ptr noundef nonnull @ei_bgp_ls_error, ptr noundef nonnull @.str.1914, i32 noundef %27)
  br label %96

29:                                               ; preds = %22
  %30 = load i32, ptr @hf_bgp_ls_tlv_multi_topology_id, align 4
  %31 = tail call ptr @proto_tree_add_item(ptr noundef %11, i32 noundef %30, ptr noundef %0, i32 noundef %.083117, i32 noundef 6, i32 noundef 0)
  %32 = load i32, ptr @ett_bgp_mp_reach_nlri, align 4
  %33 = tail call ptr @proto_item_add_subtree(ptr noundef %31, i32 noundef %32)
  %34 = load i32, ptr @hf_bgp_ls_type, align 4
  %35 = tail call ptr @proto_tree_add_item(ptr noundef %33, i32 noundef %34, ptr noundef %0, i32 noundef %.083117, i32 noundef 2, i32 noundef 0)
  %36 = load i32, ptr @hf_bgp_ls_length, align 4
  %37 = tail call ptr @proto_tree_add_item(ptr noundef %33, i32 noundef %36, ptr noundef %0, i32 noundef %20, i32 noundef 2, i32 noundef 0)
  %38 = add i32 %.083117, 4
  %39 = tail call zeroext i16 @tvb_get_ntohs(ptr noundef %0, i32 noundef %38)
  %.not90 = icmp ult i16 %39, 4096
  br i1 %.not90, label %44, label %40

40:                                               ; preds = %29
  %41 = lshr i16 %39, 12
  %42 = zext nneg i16 %41 to i32
  %43 = tail call ptr (ptr, ptr, ptr, ptr, ...) @expert_add_info_format(ptr noundef %3, ptr noundef %33, ptr noundef nonnull @ei_bgp_ls_error, ptr noundef nonnull @.str.1913, i32 noundef %42)
  br label %44

44:                                               ; preds = %40, %29
  %45 = load i32, ptr @hf_bgp_ls_nlri_multi_topology_id, align 4
  %46 = tail call ptr @proto_tree_add_item(ptr noundef %33, i32 noundef %45, ptr noundef %0, i32 noundef %38, i32 noundef 2, i32 noundef 0)
  br label %89

47:                                               ; preds = %18
  %48 = load i32, ptr @hf_bgp_ls_tlv_ospf_route_type, align 4
  %49 = zext i16 %21 to i32
  %50 = add nuw nsw i32 %49, 4
  %51 = tail call ptr @proto_tree_add_item(ptr noundef %11, i32 noundef %48, ptr noundef %0, i32 noundef %.083117, i32 noundef %50, i32 noundef 0)
  %52 = load i32, ptr @ett_bgp_mp_reach_nlri, align 4
  %53 = tail call ptr @proto_item_add_subtree(ptr noundef %51, i32 noundef %52)
  %54 = load i32, ptr @hf_bgp_ls_type, align 4
  %55 = tail call ptr @proto_tree_add_item(ptr noundef %53, i32 noundef %54, ptr noundef %0, i32 noundef %.083117, i32 noundef 2, i32 noundef 0)
  %56 = load i32, ptr @hf_bgp_ls_length, align 4
  %57 = tail call ptr @proto_tree_add_item(ptr noundef %53, i32 noundef %56, ptr noundef %0, i32 noundef %20, i32 noundef 2, i32 noundef 0)
  %.not89 = icmp eq i16 %21, 1
  br i1 %.not89, label %60, label %58

58:                                               ; preds = %47
  %59 = tail call ptr (ptr, ptr, ptr, ptr, ...) @expert_add_info_format(ptr noundef %3, ptr noundef %53, ptr noundef nonnull @ei_bgp_ls_error, ptr noundef nonnull @.str.1915)
  br label %89

60:                                               ; preds = %47
  %61 = load i32, ptr @hf_bgp_ls_nlri_ospf_route_type, align 4
  %62 = add i32 %.083117, 4
  %63 = tail call ptr @proto_tree_add_item(ptr noundef %53, i32 noundef %61, ptr noundef %0, i32 noundef %62, i32 noundef 1, i32 noundef 0)
  br label %89

64:                                               ; preds = %18
  %65 = load i32, ptr @hf_bgp_ls_tlv_ip_reachability_information, align 4
  %66 = zext i16 %21 to i32
  %67 = add nuw nsw i32 %66, 4
  %68 = tail call ptr @proto_tree_add_item(ptr noundef %11, i32 noundef %65, ptr noundef %0, i32 noundef %.083117, i32 noundef %67, i32 noundef 0)
  %69 = load i32, ptr @ett_bgp_mp_reach_nlri, align 4
  %70 = tail call ptr @proto_item_add_subtree(ptr noundef %68, i32 noundef %69)
  %71 = load i32, ptr @hf_bgp_ls_type, align 4
  %72 = tail call ptr @proto_tree_add_item(ptr noundef %70, i32 noundef %71, ptr noundef %0, i32 noundef %.083117, i32 noundef 2, i32 noundef 0)
  %73 = load i32, ptr @hf_bgp_ls_length, align 4
  %74 = tail call ptr @proto_tree_add_item(ptr noundef %70, i32 noundef %73, ptr noundef %0, i32 noundef %20, i32 noundef 2, i32 noundef 0)
  switch i32 %5, label %89 [
    i32 4, label %75
    i32 41, label %82
  ]

75:                                               ; preds = %64
  %76 = load i32, ptr @hf_bgp_ls_nlri_ip_reachability_prefix_ip, align 4
  %77 = add i32 %.083117, 4
  %78 = tail call fastcc i32 @decode_prefix4(ptr noundef %70, ptr noundef %3, ptr noundef %68, i32 noundef %76, ptr noundef %0, i32 noundef %77, ptr noundef nonnull @.str.1916)
  %79 = icmp eq i32 %78, -1
  br i1 %79, label %80, label %89

80:                                               ; preds = %75
  %81 = zext i16 %.084116 to i32
  br label %96

82:                                               ; preds = %64
  %83 = load i32, ptr @hf_bgp_ls_nlri_ip_reachability_prefix_ip6, align 4
  %84 = add i32 %.083117, 4
  %85 = tail call fastcc i32 @decode_prefix6(ptr noundef %70, ptr noundef %3, i32 noundef %83, ptr noundef %0, i32 noundef %84, ptr noundef nonnull @.str.1916)
  %86 = icmp eq i32 %85, -1
  br i1 %86, label %87, label %89

87:                                               ; preds = %82
  %88 = zext i16 %.084116 to i32
  br label %96

89:                                               ; preds = %75, %64, %82, %60, %58, %44
  %.pre-phi139 = phi i32 [ %67, %75 ], [ %67, %64 ], [ %67, %82 ], [ %50, %60 ], [ %50, %58 ], [ 6, %44 ]
  %90 = sub nsw i32 %.085115, %.pre-phi139
  %91 = add i32 %.pre-phi139, %.083117
  %92 = trunc i32 %.pre-phi139 to i16
  %93 = add i16 %.084116, %92
  %94 = icmp sgt i32 %90, 0
  br i1 %94, label %12, label %.loopexit, !llvm.loop !74

.loopexit:                                        ; preds = %89, %14
  %.1 = phi i16 [ %17, %14 ], [ %93, %89 ]
  %95 = zext i16 %.1 to i32
  br label %96

96:                                               ; preds = %.loopexit, %87, %80, %26, %23
  %.082 = phi i32 [ %95, %.loopexit ], [ -1, %26 ], [ %81, %80 ], [ %88, %87 ], [ -1, %23 ]
  ret i32 %.082
}